target datalayout = "e-m:e-p270:32:32-p271:32:32-p272:64:64-i64:64-i128:128-f80:128-n8:16:32:64-S128"
target triple = "x86_64-pc-linux-gnu"

%"class.Yosys::Functional::Node" = type { %"struct.Yosys::ComputeGraph<Yosys::Functional::IR::NodeData, Yosys::Functional::IR::Attr, Yosys::RTLIL::IdString, std::tuple<Yosys::RTLIL::IdString, Yosys::RTLIL::IdString, bool>>::BaseRef" }
%"struct.Yosys::ComputeGraph<Yosys::Functional::IR::NodeData, Yosys::Functional::IR::Attr, Yosys::RTLIL::IdString, std::tuple<Yosys::RTLIL::IdString, Yosys::RTLIL::IdString, bool>>::BaseRef" = type <{ ptr, i32, [4 x i8] }>

@.str.170 = private unnamed_addr constant [9 x i8] c"{}.all()\00", align 1

; Function Attrs: mustprogress uwtable
define internal void @_ZN12_GLOBAL__N_115CxxPrintVisitorIZNS_9CxxModule14write_eval_defERN5Yosys10Functional6WriterEEUlNS3_4NodeEE_E10reduce_andES6_S6_(ptr noundef nonnull align 8 dereferenceable(40) %0, ptr %1, i32 %2, ptr %3, i32 %4) unnamed_addr #4 align 2 {
  %6 = alloca %"class.Yosys::Functional::Node", align 8
  %7 = alloca %"class.Yosys::Functional::Node", align 8
  %8 = alloca ptr, align 8
  %9 = getelementptr inbounds nuw { ptr, i32 }, ptr %6, i32 0, i32 0
  store ptr %1, ptr %9, align 8
  %10 = getelementptr inbounds nuw { ptr, i32 }, ptr %6, i32 0, i32 1
  store i32 %2, ptr %10, align 8
  %11 = getelementptr inbounds nuw { ptr, i32 }, ptr %7, i32 0, i32 0
  store ptr %3, ptr %11, align 8
  %12 = getelementptr inbounds nuw { ptr, i32 }, ptr %7, i32 0, i32 1
  store i32 %4, ptr %12, align 8
  store ptr %0, ptr %8, align 8, !tbaa !807
  %13 = load ptr, ptr %8, align 8
  call void @_ZN12_GLOBAL__N_115CxxPrintVisitorIZNS_9CxxModule14write_eval_defERN5Yosys10Functional6WriterEEUlNS3_4NodeEE_E5printIJRS6_EEEvPKcDpOT_(ptr noundef nonnull align 8 dereferenceable(40) %13, ptr noundef @.str.170, ptr noundef nonnull align 8 dereferenceable(16) %7)
  ret void
}