; Function Attrs: mustprogress uwtable
define internal void @_ZN12_GLOBAL__N_115CxxPrintVisitorIZNS_9CxxModule14write_eval_defERN5Yosys10Functional6WriterEEUlNS3_4NodeEE_E10reduce_andES6_S6_(ptr noundef nonnull readonly align 8 captures(none) dereferenceable(40) %0, ptr readnone captures(none) %1, i32 %2, ptr %3, i32 %4) unnamed_addr #5 align 2 {
  %6 = alloca %"class.Yosys::Functional::Node", align 8
  store ptr %3, ptr %6, align 8
  %7 = getelementptr inbounds nuw i8, ptr %6, i64 8
  store i32 %4, ptr %7, align 8
  %8 = getelementptr inbounds nuw i8, ptr %0, i64 8
  %.val = load ptr, ptr %8, align 8, !tbaa !489
  %9 = getelementptr inbounds nuw i8, ptr %0, i64 16
  %.val1 = load ptr, ptr %9, align 8, !tbaa !495
  call fastcc void @_ZN12_GLOBAL__N_115CxxPrintVisitorIZNS_9CxxModule14write_eval_defERN5Yosys10Functional6WriterEEUlNS3_4NodeEE_E5printIJRS6_EEEvPKcDpOT_(ptr %.val, ptr %.val1, ptr noundef nonnull @.str.170, ptr noundef nonnull align 8 dereferenceable(16) %6)
  ret void
}